; Function Attrs: mustprogress uwtable
define noundef zeroext i1 @_ZNK6icu_776number4impl23DecimalFormatProperties29equalsDefaultExceptFastFormatEv(ptr noundef nonnull align 8 dereferenceable(757) %0) local_unnamed_addr #0 align 2 personality ptr @__gxx_personality_v0 {
  %2 = load atomic i32, ptr @_ZN12_GLOBAL__N_126gDefaultPropertiesInitOnceE acquire, align 4
  %.not11.i = icmp eq i32 %2, 2
  br i1 %.not11.i, label %_ZN6icu_7713umtx_initOnceERNS_9UInitOnceEPFvR10UErrorCodeES3_.exit, label %3

3:                                                ; preds = %1
  %4 = tail call noundef signext i8 @_ZN6icu_7720umtx_initImplPreInitERNS_9UInitOnceE(ptr noundef nonnull align 4 dereferenceable(8) @_ZN12_GLOBAL__N_126gDefaultPropertiesInitOnceE)
  %.not12.i = icmp eq i8 %4, 0
  br i1 %.not12.i, label %_ZN6icu_7713umtx_initOnceERNS_9UInitOnceEPFvR10UErrorCodeES3_.exit, label %5

5:                                                ; preds = %3
  tail call void @_ZN6icu_776number4impl23DecimalFormatPropertiesC1Ev(ptr noundef nonnull align 8 dereferenceable(757) @_ZN12_GLOBAL__N_121kRawDefaultPropertiesE)
  store i32 0, ptr getelementptr inbounds nuw (i8, ptr @_ZN12_GLOBAL__N_126gDefaultPropertiesInitOnceE, i64 4), align 4, !tbaa !77
  tail call void @_ZN6icu_7721umtx_initImplPostInitERNS_9UInitOnceE(ptr noundef nonnull align 4 dereferenceable(8) @_ZN12_GLOBAL__N_126gDefaultPropertiesInitOnceE)
  br label %_ZN6icu_7713umtx_initOnceERNS_9UInitOnceEPFvR10UErrorCodeES3_.exit

_ZN6icu_7713umtx_initOnceERNS_9UInitOnceEPFvR10UErrorCodeES3_.exit: ; preds = %1, %3, %5
  %6 = tail call noundef zeroext i1 @_ZNK6icu_776number4impl23DecimalFormatProperties7_equalsERKS2_b(ptr noundef nonnull align 8 dereferenceable(757) %0, ptr noundef nonnull align 8 dereferenceable(757) @_ZN12_GLOBAL__N_121kRawDefaultPropertiesE, i1 noundef zeroext true)
  ret i1 %6
}